; Function Attrs: inlinehint mustprogress uwtable
define internal void @"_ZZ20lean_uv_tcp_shutdownEN3$_08__invokeEP13uv_shutdown_si"(ptr noundef captures(none) %0, i32 noundef %1) #10 align 2 {
  %3 = load ptr, ptr %0, align 8, !tbaa !62
  %4 = getelementptr i8, ptr %3, i64 16
  %.val.i = load ptr, ptr %4, align 8, !tbaa !44
  %5 = icmp slt i32 %1, 0
  br i1 %5, label %6, label %9

6:                                                ; preds = %2
  %7 = getelementptr inbounds nuw i8, ptr %.val.i, i64 24
  %8 = load ptr, ptr %7, align 8, !tbaa !3
  tail call void @_ZN4lean30lean_promise_resolve_with_codeEiP11lean_object(i32 noundef %1, ptr noundef %8)
  br label %17

9:                                                ; preds = %2
  tail call void @lean_inc_heartbeat()
  %10 = tail call noalias ptr @mi_malloc_small(i64 noundef 16) #15
  %11 = icmp eq ptr %10, null
  br i1 %11, label %12, label %_ZN4lean12mk_except_okEP11lean_object.exit.i

12:                                               ; preds = %9
  tail call void @lean_internal_panic_out_of_memory() #16
  unreachable

_ZN4lean12mk_except_okEP11lean_object.exit.i:     ; preds = %9
  %13 = getelementptr inbounds nuw i8, ptr %10, i64 4
  store i32 1, ptr %10, align 4, !tbaa !40
  store i32 16842768, ptr %13, align 4
  %14 = getelementptr inbounds nuw i8, ptr %10, i64 8
  store ptr inttoptr (i64 1 to ptr), ptr %14, align 8, !tbaa !34
  %15 = getelementptr inbounds nuw i8, ptr %.val.i, i64 24
  %16 = load ptr, ptr %15, align 8, !tbaa !3
  tail call void @_ZN4lean20lean_promise_resolveEP11lean_objectS1_(ptr noundef nonnull %10, ptr noundef %16)
  br label %17

17:                                               ; preds = %_ZN4lean12mk_except_okEP11lean_object.exit.i, %6
  %18 = getelementptr inbounds nuw i8, ptr %.val.i, i64 24
  %19 = load ptr, ptr %18, align 8, !tbaa !3
  %20 = ptrtoint ptr %19 to i64
  %21 = and i64 %20, 1
  %.not.i = icmp eq i64 %21, 0
  br i1 %.not.i, label %22, label %_ZL8lean_decP11lean_object.exit8.i

22:                                               ; preds = %17
  %23 = load i32, ptr %19, align 4, !tbaa !40
  %24 = icmp sgt i32 %23, 1
  br i1 %24, label %25, label %27, !prof !9

25:                                               ; preds = %22
  %26 = add nsw i32 %23, -1
  store i32 %26, ptr %19, align 4, !tbaa !40
  br label %_ZL8lean_decP11lean_object.exit8.i

27:                                               ; preds = %22
  %.not.i.i = icmp eq i32 %23, 0
  br i1 %.not.i.i, label %_ZL8lean_decP11lean_object.exit8.i, label %28

28:                                               ; preds = %27
  tail call void @lean_dec_ref_cold(ptr noundef nonnull %19)
  br label %_ZL8lean_decP11lean_object.exit8.i

_ZL8lean_decP11lean_object.exit8.i:               ; preds = %28, %27, %25, %17
  store ptr null, ptr %18, align 8, !tbaa !3
  %29 = load ptr, ptr %0, align 8, !tbaa !62
  %30 = ptrtoint ptr %29 to i64
  %31 = and i64 %30, 1
  %.not1.i = icmp eq i64 %31, 0
  br i1 %.not1.i, label %32, label %"_ZZ20lean_uv_tcp_shutdownENK3$_0clEP13uv_shutdown_si.exit"

32:                                               ; preds = %_ZL8lean_decP11lean_object.exit8.i
  %33 = load i32, ptr %29, align 4, !tbaa !40
  %34 = icmp sgt i32 %33, 1
  br i1 %34, label %35, label %37, !prof !9

35:                                               ; preds = %32
  %36 = add nsw i32 %33, -1
  store i32 %36, ptr %29, align 4, !tbaa !40
  br label %"_ZZ20lean_uv_tcp_shutdownENK3$_0clEP13uv_shutdown_si.exit"

37:                                               ; preds = %32
  %.not.i9.i = icmp eq i32 %33, 0
  br i1 %.not.i9.i, label %"_ZZ20lean_uv_tcp_shutdownENK3$_0clEP13uv_shutdown_si.exit", label %38

38:                                               ; preds = %37
  tail call void @lean_dec_ref_cold(ptr noundef nonnull %29)
  br label %"_ZZ20lean_uv_tcp_shutdownENK3$_0clEP13uv_shutdown_si.exit"

"_ZZ20lean_uv_tcp_shutdownENK3$_0clEP13uv_shutdown_si.exit": ; preds = %_ZL8lean_decP11lean_object.exit8.i, %35, %37, %38
  tail call void @free(ptr noundef nonnull %0) #15
  ret void
}